; Function Attrs: mustprogress nofree norecurse nounwind willreturn uwtable
define dso_local void @_ZN4node9inspector8protocol12TracingAgentC2EPNS_11EnvironmentESt10shared_ptrINS0_16MainThreadHandleEE(ptr nocapture noundef nonnull writeonly align 8 dereferenceable(72) %this, ptr noundef %env, ptr nocapture noundef readonly %main_thread) unnamed_addr #3 align 2 {
entry:
  store ptr getelementptr inbounds ({ [8 x ptr] }, ptr @_ZTVN4node9inspector8protocol12TracingAgentE, i64 0, i32 0, i64 2), ptr %this, align 8
  %env_ = getelementptr inbounds i8, ptr %this, i64 8
  store ptr %env, ptr %env_, align 8
  %main_thread_ = getelementptr inbounds i8, ptr %this, i64 16
  %0 = load ptr, ptr %main_thread, align 8
  store ptr %0, ptr %main_thread_, align 8
  %_M_refcount.i.i = getelementptr inbounds i8, ptr %this, i64 24
  %_M_refcount3.i.i = getelementptr inbounds i8, ptr %main_thread, i64 8
  %1 = load ptr, ptr %_M_refcount3.i.i, align 8
  store ptr %1, ptr %_M_refcount.i.i, align 8
  %cmp.not.i.i.i = icmp eq ptr %1, null
  br i1 %cmp.not.i.i.i, label %_ZNSt10shared_ptrIN4node9inspector16MainThreadHandleEEC2ERKS3_.exit, label %if.then.i.i.i

if.then.i.i.i:                                    ; preds = %entry
  %_M_use_count.i.i.i.i = getelementptr inbounds i8, ptr %1, i64 8
  %2 = load i8, ptr @__libc_single_threaded, align 1
  %tobool.i.not.i.i.i.i = icmp eq i8 %2, 0
  br i1 %tobool.i.not.i.i.i.i, label %if.else.i.i.i.i.i, label %if.then.i.i.i.i.i

if.then.i.i.i.i.i:                                ; preds = %if.then.i.i.i
  %3 = load i32, ptr %_M_use_count.i.i.i.i, align 4
  %add.i.i.i.i.i = add nsw i32 %3, 1
  store i32 %add.i.i.i.i.i, ptr %_M_use_count.i.i.i.i, align 4
  br label %_ZNSt10shared_ptrIN4node9inspector16MainThreadHandleEEC2ERKS3_.exit

if.else.i.i.i.i.i:                                ; preds = %if.then.i.i.i
  %4 = atomicrmw volatile add ptr %_M_use_count.i.i.i.i, i32 1 acq_rel, align 4
  br label %_ZNSt10shared_ptrIN4node9inspector16MainThreadHandleEEC2ERKS3_.exit

_ZNSt10shared_ptrIN4node9inspector16MainThreadHandleEEC2ERKS3_.exit: ; preds = %entry, %if.then.i.i.i.i.i, %if.else.i.i.i.i.i
  %trace_writer_ = getelementptr inbounds i8, ptr %this, i64 32
  store ptr null, ptr %trace_writer_, align 8
  %id_.i = getelementptr inbounds i8, ptr %this, i64 40
  store i32 0, ptr %id_.i, align 8
  %frontend_object_id_ = getelementptr inbounds i8, ptr %this, i64 48
  store i32 0, ptr %frontend_object_id_, align 8
  %frontend_ = getelementptr inbounds i8, ptr %this, i64 56
  tail call void @llvm.memset.p0.i64(ptr noundef nonnull align 8 dereferenceable(16) %frontend_, i8 0, i64 16, i1 false)
  ret void
}